target datalayout = "e-m:e-p270:32:32-p271:32:32-p272:64:64-i64:64-i128:128-f80:128-n8:16:32:64-S128"
target triple = "x86_64-pc-linux-gnu"

%struct.dwt_params_t = type { ptr, i32, i32, i32, i32, i32, i32, ptr, float }

; Function Attrs: nounwind uwtable
define ptr @dt_dwt_init(ptr noundef %0, i32 noundef %1, i32 noundef %2, i32 noundef %3, i32 noundef %4, i32 noundef %5, i32 noundef %6, ptr noundef %7, float noundef %8) #0 {
  %10 = alloca ptr, align 8
  %11 = alloca ptr, align 8
  %12 = alloca i32, align 4
  %13 = alloca i32, align 4
  %14 = alloca i32, align 4
  %15 = alloca i32, align 4
  %16 = alloca i32, align 4
  %17 = alloca i32, align 4
  %18 = alloca ptr, align 8
  %19 = alloca float, align 4
  %20 = alloca ptr, align 8
  %21 = alloca i32, align 4
  store ptr %0, ptr %11, align 8, !tbaa !6
  store i32 %1, ptr %12, align 4, !tbaa !11
  store i32 %2, ptr %13, align 4, !tbaa !11
  store i32 %3, ptr %14, align 4, !tbaa !11
  store i32 %4, ptr %15, align 4, !tbaa !11
  store i32 %5, ptr %16, align 4, !tbaa !11
  store i32 %6, ptr %17, align 4, !tbaa !11
  store ptr %7, ptr %18, align 8, !tbaa !13
  store float %8, ptr %19, align 4, !tbaa !14
  call void @llvm.lifetime.start.p0(i64 8, ptr %20) #10
  %22 = call noalias ptr @malloc(i64 noundef 48) #11
  store ptr %22, ptr %20, align 8, !tbaa !16
  %23 = load ptr, ptr %20, align 8, !tbaa !16
  %24 = icmp ne ptr %23, null
  br i1 %24, label %26, label %25

25:                                               ; preds = %9
  store ptr null, ptr %10, align 8
  store i32 1, ptr %21, align 4
  br label %55

26:                                               ; preds = %9
  %27 = load ptr, ptr %11, align 8, !tbaa !6
  %28 = load ptr, ptr %20, align 8, !tbaa !16
  %29 = getelementptr inbounds nuw %struct.dwt_params_t, ptr %28, i32 0, i32 0
  store ptr %27, ptr %29, align 8, !tbaa !18
  %30 = load i32, ptr %14, align 4, !tbaa !11
  %31 = load ptr, ptr %20, align 8, !tbaa !16
  %32 = getelementptr inbounds nuw %struct.dwt_params_t, ptr %31, i32 0, i32 1
  store i32 %30, ptr %32, align 8, !tbaa !20
  %33 = load i32, ptr %12, align 4, !tbaa !11
  %34 = load ptr, ptr %20, align 8, !tbaa !16
  %35 = getelementptr inbounds nuw %struct.dwt_params_t, ptr %34, i32 0, i32 2
  store i32 %33, ptr %35, align 4, !tbaa !21
  %36 = load i32, ptr %13, align 4, !tbaa !11
  %37 = load ptr, ptr %20, align 8, !tbaa !16
  %38 = getelementptr inbounds nuw %struct.dwt_params_t, ptr %37, i32 0, i32 3
  store i32 %36, ptr %38, align 8, !tbaa !22
  %39 = load i32, ptr %15, align 4, !tbaa !11
  %40 = load ptr, ptr %20, align 8, !tbaa !16
  %41 = getelementptr inbounds nuw %struct.dwt_params_t, ptr %40, i32 0, i32 4
  store i32 %39, ptr %41, align 4, !tbaa !23
  %42 = load i32, ptr %16, align 4, !tbaa !11
  %43 = load ptr, ptr %20, align 8, !tbaa !16
  %44 = getelementptr inbounds nuw %struct.dwt_params_t, ptr %43, i32 0, i32 5
  store i32 %42, ptr %44, align 8, !tbaa !24
  %45 = load i32, ptr %17, align 4, !tbaa !11
  %46 = load ptr, ptr %20, align 8, !tbaa !16
  %47 = getelementptr inbounds nuw %struct.dwt_params_t, ptr %46, i32 0, i32 6
  store i32 %45, ptr %47, align 4, !tbaa !25
  %48 = load ptr, ptr %18, align 8, !tbaa !13
  %49 = load ptr, ptr %20, align 8, !tbaa !16
  %50 = getelementptr inbounds nuw %struct.dwt_params_t, ptr %49, i32 0, i32 7
  store ptr %48, ptr %50, align 8, !tbaa !26
  %51 = load float, ptr %19, align 4, !tbaa !14
  %52 = load ptr, ptr %20, align 8, !tbaa !16
  %53 = getelementptr inbounds nuw %struct.dwt_params_t, ptr %52, i32 0, i32 8
  store float %51, ptr %53, align 8, !tbaa !27
  %54 = load ptr, ptr %20, align 8, !tbaa !16
  store ptr %54, ptr %10, align 8
  store i32 1, ptr %21, align 4
  br label %55

55:                                               ; preds = %26, %25
  call void @llvm.lifetime.end.p0(i64 8, ptr %20) #10
  %56 = load ptr, ptr %10, align 8
  ret ptr %56
}