; Function Attrs: mustprogress nofree nounwind willreturn memory(write, argmem: none, inaccessiblemem: readwrite) uwtable
define noalias noundef ptr @dt_dwt_init(ptr noundef %0, i32 noundef %1, i32 noundef %2, i32 noundef %3, i32 noundef %4, i32 noundef %5, i32 noundef %6, ptr noundef %7, float noundef %8) local_unnamed_addr #0 {
  %10 = tail call noalias dereferenceable_or_null(48) ptr @malloc(i64 noundef 48) #14
  %.not = icmp eq ptr %10, null
  br i1 %.not, label %20, label %11

11:                                               ; preds = %9
  store ptr %0, ptr %10, align 8, !tbaa !6
  %12 = getelementptr inbounds nuw i8, ptr %10, i64 8
  store i32 %3, ptr %12, align 8, !tbaa !14
  %13 = getelementptr inbounds nuw i8, ptr %10, i64 12
  store i32 %1, ptr %13, align 4, !tbaa !15
  %14 = getelementptr inbounds nuw i8, ptr %10, i64 16
  store i32 %2, ptr %14, align 8, !tbaa !16
  %15 = getelementptr inbounds nuw i8, ptr %10, i64 20
  store i32 %4, ptr %15, align 4, !tbaa !17
  %16 = getelementptr inbounds nuw i8, ptr %10, i64 24
  store i32 %5, ptr %16, align 8, !tbaa !18
  %17 = getelementptr inbounds nuw i8, ptr %10, i64 28
  store i32 %6, ptr %17, align 4, !tbaa !19
  %18 = getelementptr inbounds nuw i8, ptr %10, i64 32
  store ptr %7, ptr %18, align 8, !tbaa !20
  %19 = getelementptr inbounds nuw i8, ptr %10, i64 40
  store float %8, ptr %19, align 8, !tbaa !21
  br label %20

20:                                               ; preds = %9, %11
  ret ptr %10
}